; Function Attrs: nounwind sspstrong uwtable
define dso_local void @tcg_gen_qemu_ld_i32_chk(ptr noundef %0, ptr noundef %1, i64 noundef %2, i32 noundef %3, i32 noundef %4) local_unnamed_addr #0 {
  %6 = tail call align 8 ptr @llvm.threadlocal.address.p0(ptr align 8 @tcg_ctx)
  %7 = load ptr, ptr %6, align 8
  %8 = getelementptr inbounds nuw i8, ptr %7, i64 60
  %9 = load i32, ptr %8, align 4
  %10 = icmp eq i32 %4, %9
  tail call void @llvm.assume(i1 %10)
  %11 = and i32 %3, 7
  %12 = icmp samesign ult i32 %11, 3
  tail call void @llvm.assume(i1 %12)
  tail call fastcc void @tcg_gen_qemu_ld_i32_int(ptr noundef %0, ptr noundef %1, i64 noundef %2, i32 noundef %3)
  ret void
}